; Function Attrs: nounwind uwtable
define void @MixCoder_Free(ptr noundef captures(none) %0) local_unnamed_addr #1 {
  %2 = getelementptr inbounds nuw i8, ptr %0, i64 16
  %3 = load i32, ptr %2, align 8
  %4 = icmp sgt i32 %3, 0
  br i1 %4, label %.lr.ph, label %._crit_edge

.lr.ph:                                           ; preds = %1
  %5 = getelementptr inbounds nuw i8, ptr %0, i64 112
  %6 = load ptr, ptr %0, align 8
  %7 = icmp eq ptr %6, null
  br i1 %7, label %._crit_edge, label %.lr.ph.split

.lr.ph.splitthread-pre-split:                     ; preds = %16
  %.pr = load ptr, ptr %0, align 8
  br label %.lr.ph.split

.lr.ph.split:                                     ; preds = %.lr.ph, %.lr.ph.splitthread-pre-split
  %8 = phi ptr [ %.pr, %.lr.ph.splitthread-pre-split ], [ %6, %.lr.ph ]
  %9 = phi i32 [ %17, %.lr.ph.splitthread-pre-split ], [ %3, %.lr.ph ]
  %indvars.iv = phi i64 [ %indvars.iv.next, %.lr.ph.splitthread-pre-split ], [ 0, %.lr.ph ]
  %10 = getelementptr inbounds nuw [4 x %struct._IStateCoder], ptr %5, i64 0, i64 %indvars.iv
  %.not18 = icmp eq ptr %8, null
  br i1 %.not18, label %16, label %11

11:                                               ; preds = %.lr.ph.split
  %12 = load ptr, ptr %10, align 8
  %.not19 = icmp eq ptr %12, null
  br i1 %.not19, label %16, label %13

13:                                               ; preds = %11
  %14 = getelementptr inbounds nuw i8, ptr %10, i64 8
  %15 = load ptr, ptr %14, align 8
  tail call void %15(ptr noundef nonnull %12, ptr noundef nonnull %8) #10
  %.pre = load i32, ptr %2, align 8
  br label %16

16:                                               ; preds = %.lr.ph.split, %11, %13
  %17 = phi i32 [ %9, %.lr.ph.split ], [ %9, %11 ], [ %.pre, %13 ]
  %indvars.iv.next = add nuw nsw i64 %indvars.iv, 1
  %18 = sext i32 %17 to i64
  %19 = icmp slt i64 %indvars.iv.next, %18
  br i1 %19, label %.lr.ph.splitthread-pre-split, label %._crit_edge, !llvm.loop !4

._crit_edge:                                      ; preds = %16, %.lr.ph, %1
  store i32 0, ptr %2, align 8
  %20 = getelementptr inbounds nuw i8, ptr %0, i64 8
  %21 = load ptr, ptr %20, align 8
  %.not = icmp eq ptr %21, null
  br i1 %.not, label %26, label %22

22:                                               ; preds = %._crit_edge
  %23 = load ptr, ptr %0, align 8
  %24 = getelementptr inbounds nuw i8, ptr %23, i64 8
  %25 = load ptr, ptr %24, align 8
  tail call void %25(ptr noundef %23, ptr noundef nonnull %21) #10
  store ptr null, ptr %20, align 8
  br label %26

26:                                               ; preds = %22, %._crit_edge
  ret void
}